Certificate:
    Data:
        Version: 3 (0x2)
        Serial Number: 8 (0x8)
        Signature Algorithm: sha1WithRSAEncryption
        Issuer: C=US, ST=Pennsylvania, L=Philadelphia, O=Gleske Productions, CN=gleske.net
        Validity
            Not Before: Jun 28 01:55:18 2012 GMT
            Not After : Jun 28 01:55:18 2013 GMT
        Subject: C=US, ST=Pennsylvania, L=Philadelphia, O=Gleske Productions, CN=localhost
        Subject Public Key Info:
            Public Key Algorithm: rsaEncryption
                Public-Key: (2048 bit)
                Modulus:
                    00:bc:29:42:1c:75:b8:50:ab:46:2f:20:d8:b3:3f:
                    82:31:2a:a2:b8:94:50:24:19:df:3f:2c:e9:bb:c0:
                    cb:5e:9c:cd:84:6d:37:c0:e4:36:ac:f1:f9:83:4e:
                    0d:e9:80:1a:24:58:0e:d8:1e:f5:ec:a6:1b:71:87:
                    57:a1:3d:4c:55:d6:b6:0f:86:7e:f0:fd:aa:48:16:
                    bb:01:7b:dd:74:d4:08:6c:38:db:aa:b3:f9:e2:fa:
                    29:42:87:ca:6c:9b:a9:4b:5f:ea:29:89:a3:d6:c3:
                    e8:24:21:6d:b4:b1:94:03:5a:3a:6c:e1:fc:3c:3f:
                    d9:b6:42:58:c2:5c:a8:20:9f:f0:8a:5a:6b:9b:ef:
                    3c:42:44:6e:75:a4:fa:c2:a0:e0:34:e1:59:0d:cc:
                    c9:13:51:ac:96:38:7c:09:62:f4:6d:95:f7:50:7a:
                    91:8a:86:2c:85:ef:0c:77:3b:9c:62:ea:2f:ff:52:
                    c5:99:01:07:45:5d:4a:77:ba:ed:86:85:bf:ea:43:
                    95:50:00:b7:42:0b:26:c9:71:28:87:62:a6:8e:63:
                    7b:b1:28:05:bb:4f:41:47:8b:50:51:20:e0:f4:65:
                    1a:71:cb:00:f1:5c:a0:b5:b8:09:3e:44:9b:c0:92:
                    46:30:2d:1e:d6:98:47:79:d6:e1:16:8b:7d:7e:6b:
                    63:61
                Exponent: 65537 (0x10001)
        X509v3 extensions:
            X509v3 Basic Constraints: 
                CA:FALSE
            Netscape Comment: 
                OpenSSL Generated Certificate
            X509v3 Subject Key Identifier: 
                73:7A:B3:2C:AD:50:62:09:86:11:5E:6C:16:E5:C7:42:6F:3F:75:FE
            X509v3 Authority Key Identifier: 
                keyid:76:1C:B3:30:7E:F3:BD:93:D5:78:31:21:3B:5F:9E:AF:1A:0D:13:E3

    Signature Algorithm: sha1WithRSAEncryption
        14:d2:22:0d:5a:70:f1:0b:3b:09:4d:25:77:ec:aa:d3:a0:0e:
        9b:86:d4:79:7d:ca:d5:78:d9:b5:01:bf:3d:77:7a:b9:31:48:
        2d:d0:b0:49:c4:dd:d0:bf:ca:47:49:ce:02:f4:68:a5:72:7f:
        02:e7:66:68:ec:91:94:3b:56:16:40:86:80:74:21:73:7d:c7:
        42:78:22:6d:d8:80:f2:02:d8:57:4c:a9:e4:fb:40:bc:07:af:
        bb:1f:ce:82:b5:bc:fb:04:f1:06:0a:8c:39:be:cb:1d:ee:86:
        08:d0:54:7b:dd:b9:d2:ab:46:e8:e5:32:dd:f6:47:26:9c:c8:
        80:64:e7:6b:f4:c5:c1:2b:4b:42:69:7a:f8:19:0f:44:de:a3:
        b9:ba:51:f1:29:5e:3b:96:f2:86:ac:14:3b:60:21:23:00:26:
        d6:7f:cf:6b:e7:ec:76:e0:f1:e8:b4:a6:60:ee:09:38:93:fe:
        71:d6:77:e7:00:28:bf:77:c3:2a:6a:e1:e4:08:a9:cb:12:64:
        4f:cb:e0:8d:fb:4e:12:02:c7:40:34:6b:7a:52:21:80:a6:70:
        49:70:2e:94:96:63:75:24:7b:97:a4:7c:97:8b:ef:ce:93:7a:
        66:3a:37:3a:21:3d:d8:34:ab:2d:e3:49:38:78:64:03:8d:79:
        41:3a:69:d6
-----BEGIN CERTIFICATE-----
MIIDzzCCAregAwIBAgIBCDANBgkqhkiG9w0BAQUFADBtMQswCQYDVQQGEwJVUzEV
MBMGA1UECAwMUGVubnN5bHZhbmlhMRUwEwYDVQQHDAxQaGlsYWRlbHBoaWExGzAZ
BgNVBAoMEkdsZXNrZSBQcm9kdWN0aW9uczETMBEGA1UEAwwKZ2xlc2tlLm5ldDAe
Fw0xMjA2MjgwMTU1MThaFw0xMzA2MjgwMTU1MThaMGwxCzAJBgNVBAYTAlVTMRUw
EwYDVQQIDAxQZW5uc3lsdmFuaWExFTATBgNVBAcMDFBoaWxhZGVscGhpYTEbMBkG
A1UECgwSR2xlc2tlIFByb2R1Y3Rpb25zMRIwEAYDVQQDDAlsb2NhbGhvc3QwggEi
MA0GCSqGSIb3DQEBAQUAA4IBDwAwggEKAoIBAQC8KUIcdbhQq0YvINizP4IxKqK4
lFAkGd8/LOm7wMtenM2EbTfA5Das8fmDTg3pgBokWA7YHvXsphtxh1ehPUxV1rYP
hn7w/apIFrsBe9101AhsONuqs/ni+ilCh8psm6lLX+opiaPWw+gkIW20sZQDWjps
4fw8P9m2QljCXKggn/CKWmub7zxCRG51pPrCoOA04VkNzMkTUayWOHwJYvRtlfdQ
epGKhiyF7wx3O5xi6i//UsWZAQdFXUp3uu2Ghb/qQ5VQALdCCybJcSiHYqaOY3ux
KAW7T0FHi1BRIOD0ZRpxywDxXKC1uAk+RJvAkkYwLR7WmEd51uEWi31+a2NhAgMB
AAGjezB5MAkGA1UdEwQCMAAwLAYJYIZIAYb4QgENBB8WHU9wZW5TU0wgR2VuZXJh
dGVkIENlcnRpZmljYXRlMB0GA1UdDgQWBBRzerMsrVBiCYYRXmwW5cdCbz91/jAf
BgNVHSMEGDAWgBR2HLMwfvO9k9V4MSE7X56vGg0T4zANBgkqhkiG9w0BAQUFAAOC
AQEAFNIiDVpw8Qs7CU0ld+yq06AOm4bUeX3K1XjZtQG/PXd6uTFILdCwScTd0L/K
R0nOAvRopXJ/AudmaOyRlDtWFkCGgHQhc33HQngibdiA8gLYV0yp5PtAvAevux/O
grW8+wTxBgqMOb7LHe6GCNBUe9250qtG6OUy3fZHJpzIgGTna/TFwStLQml6+BkP
RN6jubpR8SleO5byhqwUO2AhIwAm1n/Pa+fsduDx6LSmYO4JOJP+cdZ35wAov3fD
Kmrh5AipyxJkT8vgjftOEgLHQDRrelIhgKZwSXAulJZjdSR7l6R8l4vvzpN6Zjo3
OiE92DSrLeNJOHhkA415QTpp1g==
-----END CERTIFICATE-----
-----BEGIN PRIVATE KEY-----
MIIEvgIBADANBgkqhkiG9w0BAQEFAASCBKgwggSkAgEAAoIBAQC8KUIcdbhQq0Yv
INizP4IxKqK4lFAkGd8/LOm7wMtenM2EbTfA5Das8fmDTg3pgBokWA7YHvXsphtx
h1ehPUxV1rYPhn7w/apIFrsBe9101AhsONuqs/ni+ilCh8psm6lLX+opiaPWw+gk
IW20sZQDWjps4fw8P9m2QljCXKggn/CKWmub7zxCRG51pPrCoOA04VkNzMkTUayW
OHwJYvRtlfdQepGKhiyF7wx3O5xi6i//UsWZAQdFXUp3uu2Ghb/qQ5VQALdCCybJ
cSiHYqaOY3uxKAW7T0FHi1BRIOD0ZRpxywDxXKC1uAk+RJvAkkYwLR7WmEd51uEW
i31+a2NhAgMBAAECggEBALwdf5QWeVRlN8DMVPo4B0CCgLaKyOie2Rw/Gdr08B3C
JJI94xy8zJDxRmRo9+23fetSAl097t5OX2eMSSbRsuyqwdAZxfXHlaOG3iWooYo4
pccUvUEXuD+dnPx/5/fXVFUgKmqmyh9gM0lUBms9kl4bqgfLkzLlHxNhl32RxyD9
K7YSdGmZ682tfvrPCXIrdaNh95WhEv9du1T5V6ctOGTPoMHZkPa5kHq5FXEgBMs6
3TDTigdgGok4XAwHLlXF/sdZg4Mh01+AZKmQBi9pbFEeVamms9xp80mpoiEclV+P
gU5wNUiYQYU2EYuOnFByUytDWcaafkBnzUlLc7z4JFUCgYEA+Yfc0fXhxRpGiFxl
uFPrd4sgrJ1quiwoSTpZTDoICb6mtB+yVZ31dqNA2jTIXLM3Fuv0Twapm/uwflHj
BvoPz8PBR1QMiE/IZJmrP+aaA++mhBOIo/ucAE4FT/LLaqQAGO8PTxN39EbYQv5v
7RoDCHKMEWSZhdqnkK+h70OJSkMCgYEAwQoV4RYus7LwvauS0RLcHx+Z+TRI4M0F
IIlAK92a4NxT5oTf1n5UuSqV2Kr96eRsh4UmZm57L3jYqnN7OMFStIirw40yWxWF
DuhQCPk+NcfRuQz4inX4H07wFcrYG3vtrabgTEojef9zqChxJ/KcDuBLkGW2xIx1
Kc2N1NKZG4sCgYATQCgJCq8gRaarXnV6gv7nehRLPNm/AykYfSfmeZOlLNAvlUJs
2ILXZEDclLXgcPMPEaUHc7wiDIjRNgANybzuimue1R0iZwVOvYw4odG/+/0cs2UX
QZIHc/107YZD8+MOCWNk9luKvOxyPq7j293gCPZFYT121ieXQfV8P/mXgQKBgDeX
KO/WDILxYASu+Su+S6em2Rd76BTc1cIl5FX9jlF9Aahb0X4aiVl9mwN3UoHdpydr
v8A1xsHIAlUrxmt0uNWGmjhJXBwA2X2OhyXeaPzh21J4Gsb87ARQHjGYZZ2clbix
Wtx9aTQDzZG6e8OuSSS7kOc3c2esrzznlhWYxEC7AoGBAME6veBExvP+rESfgmG6
5EueyDMvbJ0oW/l4PHhvLIHTWYwY34Yr/yCRuMP+PedcEaEcjrYLN68Dl70M0EeI
x9DWj5kE6SvWPoAve2aICdUzpl5Ab7BOiFUlanV8dkw1mW2e0ccj38K2OV+NoI2A
rzI+s6kiyyGdJc4yECAkwCcu
-----END PRIVATE KEY-----
